; Function Attrs: nounwind uwtable
define internal noundef i32 @lj_cf_buffer_method_encode(ptr noundef %0) #0 {
  %2 = getelementptr inbounds nuw i8, ptr %0, i64 32
  %3 = load ptr, ptr %2, align 8, !tbaa !4
  %4 = getelementptr inbounds nuw i8, ptr %0, i64 40
  %5 = load ptr, ptr %4, align 8, !tbaa !14
  %6 = icmp ult ptr %3, %5
  br i1 %6, label %7, label %16

7:                                                ; preds = %1
  %8 = load i64, ptr %3, align 8, !tbaa !15
  %.mask.i = and i64 %8, -140737488355328
  %9 = icmp eq i64 %.mask.i, -1829587348619264
  br i1 %9, label %10, label %16

10:                                               ; preds = %7
  %11 = and i64 %8, 140737488355327
  %12 = inttoptr i64 %11 to ptr
  %13 = getelementptr inbounds nuw i8, ptr %12, i64 10
  %14 = load i8, ptr %13, align 2, !tbaa !15
  %15 = icmp eq i8 %14, 3
  br i1 %15, label %buffer_tobuf.exit, label %16

16:                                               ; preds = %10, %7, %1
  tail call void @lj_err_argtype(ptr noundef nonnull %0, i32 noundef 1, ptr noundef nonnull @.str.2) #7
  unreachable

buffer_tobuf.exit:                                ; preds = %10
  %17 = getelementptr inbounds nuw i8, ptr %12, i64 48
  %18 = ptrtoint ptr %0 to i64
  %19 = getelementptr inbounds nuw i8, ptr %12, i64 72
  %20 = load i64, ptr %19, align 8, !tbaa !16
  %21 = and i64 %20, 7
  %22 = or i64 %21, %18
  store i64 %22, ptr %19, align 8, !tbaa !16
  %23 = tail call ptr @lj_lib_checkany(ptr noundef nonnull %0, i32 noundef 2) #6
  %24 = tail call ptr @lj_serialize_put(ptr noundef nonnull %17, ptr noundef %23) #6
  %25 = getelementptr inbounds nuw i8, ptr %0, i64 16
  %26 = load i64, ptr %25, align 8, !tbaa !19
  %27 = inttoptr i64 %26 to ptr
  %28 = getelementptr inbounds nuw i8, ptr %27, i64 16
  %29 = load i64, ptr %28, align 8, !tbaa !22
  %30 = getelementptr inbounds nuw i8, ptr %27, i64 24
  %31 = load i64, ptr %30, align 8, !tbaa !51
  %.not = icmp ult i64 %29, %31
  br i1 %.not, label %34, label %32, !prof !52

32:                                               ; preds = %buffer_tobuf.exit
  %33 = tail call i32 @lj_gc_step(ptr noundef nonnull %0) #6
  br label %34

34:                                               ; preds = %32, %buffer_tobuf.exit
  %35 = load ptr, ptr %2, align 8, !tbaa !4
  %36 = getelementptr inbounds nuw i8, ptr %35, i64 8
  store ptr %36, ptr %4, align 8, !tbaa !14
  ret i32 1
}